target datalayout = "e-m:e-p270:32:32-p271:32:32-p272:64:64-i64:64-i128:128-f80:128-n8:16:32:64-S128"
target triple = "x86_64-unknown-linux-gnu"

%"class.net::QuicAlarm" = type { ptr, %"class.net::QuicArenaScopedPtr", %"class.net::QuicTime" }
%"class.net::QuicArenaScopedPtr" = type { ptr }
%"class.net::QuicTime" = type { i64 }

; Function Attrs: mustprogress nounwind uwtable
define linkonce_odr dso_local void @_ZN3net8QuicTimeC2El(ptr noundef nonnull align 8 dereferenceable(8) %this, i64 noundef %time) unnamed_addr #1 comdat align 2 {
entry:
  %this.addr = alloca ptr, align 8
  %time.addr = alloca i64, align 8
  store ptr %this, ptr %this.addr, align 8
  store i64 %time, ptr %time.addr, align 8
  %this1 = load ptr, ptr %this.addr, align 8
  %time_ = getelementptr inbounds %"class.net::QuicTime", ptr %this1, i32 0, i32 0
  %0 = load i64, ptr %time.addr, align 8
  store i64 %0, ptr %time_, align 8
  ret void
}

; Function Attrs: mustprogress nounwind uwtable
define linkonce_odr dso_local noundef zeroext i1 @_ZNK3net8QuicTime13IsInitializedEv(ptr noundef nonnull align 8 dereferenceable(8) %this) #1 comdat align 2 {
entry:
  %this.addr = alloca ptr, align 8
  store ptr %this, ptr %this.addr, align 8
  %this1 = load ptr, ptr %this.addr, align 8
  %time_ = getelementptr inbounds %"class.net::QuicTime", ptr %this1, i32 0, i32 0
  %0 = load i64, ptr %time_, align 8
  %cmp = icmp ne i64 0, %0
  ret i1 %cmp
}

; Function Attrs: mustprogress uwtable
define linkonce_odr dso_local i64 @_ZN3net8QuicTime4ZeroEv() #0 comdat align 2 {
entry:
  %retval = alloca %"class.net::QuicTime", align 8
  call void @_ZN3net8QuicTimeC2El(ptr noundef nonnull align 8 dereferenceable(8) %retval, i64 noundef 0)
  %coerce.dive = getelementptr inbounds %"class.net::QuicTime", ptr %retval, i32 0, i32 0
  %0 = load i64, ptr %coerce.dive, align 8
  ret i64 %0
}

; Function Attrs: mustprogress uwtable
define dso_local noundef zeroext i1 @_ZNK3net9QuicAlarm5IsSetEv(ptr noundef nonnull align 8 dereferenceable(24) %this) #0 align 2 {
entry:
  %this.addr = alloca ptr, align 8
  store ptr %this, ptr %this.addr, align 8
  %this1 = load ptr, ptr %this.addr, align 8
  %deadline_ = getelementptr inbounds %"class.net::QuicAlarm", ptr %this1, i32 0, i32 2
  %call = call noundef zeroext i1 @_ZNK3net8QuicTime13IsInitializedEv(ptr noundef nonnull align 8 dereferenceable(8) %deadline_)
  ret i1 %call
}

; Function Attrs: mustprogress uwtable
define dso_local void @_ZN3net9QuicAlarm6CancelEv(ptr noundef nonnull align 8 dereferenceable(24) %this) #0 align 2 {
entry:
  %this.addr = alloca ptr, align 8
  %ref.tmp = alloca %"class.net::QuicTime", align 8
  store ptr %this, ptr %this.addr, align 8
  %this1 = load ptr, ptr %this.addr, align 8
  %call = call noundef zeroext i1 @_ZNK3net9QuicAlarm5IsSetEv(ptr noundef nonnull align 8 dereferenceable(24) %this1)
  br i1 %call, label %if.end, label %if.then

if.then:                                          ; preds = %entry
  br label %return

if.end:                                           ; preds = %entry
  %call2 = call i64 @_ZN3net8QuicTime4ZeroEv()
  %coerce.dive = getelementptr inbounds %"class.net::QuicTime", ptr %ref.tmp, i32 0, i32 0
  store i64 %call2, ptr %coerce.dive, align 8
  %deadline_ = getelementptr inbounds %"class.net::QuicAlarm", ptr %this1, i32 0, i32 2
  call void @llvm.memcpy.p0.p0.i64(ptr align 8 %deadline_, ptr align 8 %ref.tmp, i64 8, i1 false)
  %vtable = load ptr, ptr %this1, align 8
  %vfn = getelementptr inbounds ptr, ptr %vtable, i64 3
  %0 = load ptr, ptr %vfn, align 8
  call void %0(ptr noundef nonnull align 8 dereferenceable(24) %this1)
  br label %return

return:                                           ; preds = %if.end, %if.then
  ret void
}