; Function Attrs: mustprogress uwtable
define dso_local void @_ZN3net9QuicAlarm6CancelEv(ptr noundef nonnull align 8 dereferenceable(24) %this) local_unnamed_addr #4 align 2 {
entry:
  %deadline_.i = getelementptr inbounds i8, ptr %this, i64 16
  %0 = load i64, ptr %deadline_.i, align 8
  %cmp.i.i.not = icmp eq i64 %0, 0
  br i1 %cmp.i.i.not, label %return, label %if.end

if.end:                                           ; preds = %entry
  store i64 0, ptr %deadline_.i, align 8
  %vtable = load ptr, ptr %this, align 8
  %vfn = getelementptr inbounds i8, ptr %vtable, i64 24
  %1 = load ptr, ptr %vfn, align 8
  tail call void %1(ptr noundef nonnull align 8 dereferenceable(24) %this)
  br label %return

return:                                           ; preds = %entry, %if.end
  ret void
}